target datalayout = "e-m:e-p270:32:32-p271:32:32-p272:64:64-i64:64-i128:128-f80:128-n8:16:32:64-S128"
target triple = "x86_64-pc-linux-gnu"

%struct.Ivy_Man_t_ = type { ptr, ptr, ptr, ptr, ptr, %struct.Ivy_Obj_t_, [8 x i32], i32, i32, ptr, i32, i32, i32, i32, ptr, i32, ptr, ptr, ptr, i32, ptr, ptr, ptr, i64, i64 }
%struct.Ivy_Obj_t_ = type { i32, i32, i32, i32, ptr, ptr, ptr, ptr, ptr, ptr, ptr, ptr }
%struct.Vec_Ptr_t_ = type { i32, i32, ptr }
%struct.Ivy_Cut_t_ = type { i32, i16, i16, [6 x i32], i32 }

@.str.12 = private unnamed_addr constant [2 x i8] c"\0A\00", align 1
@.str.24 = private unnamed_addr constant [15 x i8] c"Trying cut : {\00", align 1
@.str.25 = private unnamed_addr constant [9 x i8] c" %6d(%d)\00", align 1
@.str.26 = private unnamed_addr constant [6 x i8] c" }   \00", align 1
@.str.27 = private unnamed_addr constant [15 x i8] c"Latches = %d. \00", align 1
@.str.28 = private unnamed_addr constant [15 x i8] c"Present = %d. \00", align 1
@.str.29 = private unnamed_addr constant [15 x i8] c"Clauses = %d. \00", align 1

; Function Attrs: nounwind uwtable
define internal i32 @Ivy_ObjIsLatch(ptr noundef %0) #0 {
  %2 = alloca ptr, align 8
  store ptr %0, ptr %2, align 8
  %3 = load ptr, ptr %2, align 8
  %4 = getelementptr inbounds %struct.Ivy_Obj_t_, ptr %3, i32 0, i32 2
  %5 = load i32, ptr %4, align 8
  %6 = and i32 %5, 15
  %7 = icmp eq i32 %6, 4
  %8 = zext i1 %7 to i32
  ret i32 %8
}

; Function Attrs: nounwind uwtable
define internal ptr @Vec_PtrEntry(ptr noundef %0, i32 noundef %1) #0 {
  %3 = alloca ptr, align 8
  %4 = alloca i32, align 4
  store ptr %0, ptr %3, align 8
  store i32 %1, ptr %4, align 4
  %5 = load ptr, ptr %3, align 8
  %6 = getelementptr inbounds %struct.Vec_Ptr_t_, ptr %5, i32 0, i32 2
  %7 = load ptr, ptr %6, align 8
  %8 = load i32, ptr %4, align 4
  %9 = sext i32 %8 to i64
  %10 = getelementptr inbounds ptr, ptr %7, i64 %9
  %11 = load ptr, ptr %10, align 8
  ret ptr %11
}

; Function Attrs: nounwind uwtable
define internal i32 @Vec_PtrSize(ptr noundef %0) #0 {
  %2 = alloca ptr, align 8
  store ptr %0, ptr %2, align 8
  %3 = load ptr, ptr %2, align 8
  %4 = getelementptr inbounds %struct.Vec_Ptr_t_, ptr %3, i32 0, i32 1
  %5 = load i32, ptr %4, align 4
  ret i32 %5
}

; Function Attrs: nounwind uwtable
define internal ptr @Ivy_ManObj(ptr noundef %0, i32 noundef %1) #0 {
  %3 = alloca ptr, align 8
  %4 = alloca i32, align 4
  store ptr %0, ptr %3, align 8
  store i32 %1, ptr %4, align 4
  %5 = load ptr, ptr %3, align 8
  %6 = getelementptr inbounds %struct.Ivy_Man_t_, ptr %5, i32 0, i32 3
  %7 = load ptr, ptr %6, align 8
  %8 = load i32, ptr %4, align 4
  %9 = call ptr @Vec_PtrEntry(ptr noundef %7, i32 noundef %8)
  ret ptr %9
}

; Function Attrs: nounwind uwtable
define internal ptr @Vec_PtrAlloc(i32 noundef %0) #0 {
  %2 = alloca i32, align 4
  %3 = alloca ptr, align 8
  store i32 %0, ptr %2, align 4
  %4 = call noalias ptr @malloc(i64 noundef 16) #7
  store ptr %4, ptr %3, align 8
  %5 = load i32, ptr %2, align 4
  %6 = icmp sgt i32 %5, 0
  br i1 %6, label %7, label %11

7:                                                ; preds = %1
  %8 = load i32, ptr %2, align 4
  %9 = icmp slt i32 %8, 8
  br i1 %9, label %10, label %11

10:                                               ; preds = %7
  store i32 8, ptr %2, align 4
  br label %11

11:                                               ; preds = %10, %7, %1
  %12 = load ptr, ptr %3, align 8
  %13 = getelementptr inbounds %struct.Vec_Ptr_t_, ptr %12, i32 0, i32 1
  store i32 0, ptr %13, align 4
  %14 = load i32, ptr %2, align 4
  %15 = load ptr, ptr %3, align 8
  %16 = getelementptr inbounds %struct.Vec_Ptr_t_, ptr %15, i32 0, i32 0
  store i32 %14, ptr %16, align 8
  %17 = load ptr, ptr %3, align 8
  %18 = getelementptr inbounds %struct.Vec_Ptr_t_, ptr %17, i32 0, i32 0
  %19 = load i32, ptr %18, align 8
  %20 = icmp ne i32 %19, 0
  br i1 %20, label %21, label %28

21:                                               ; preds = %11
  %22 = load ptr, ptr %3, align 8
  %23 = getelementptr inbounds %struct.Vec_Ptr_t_, ptr %22, i32 0, i32 0
  %24 = load i32, ptr %23, align 8
  %25 = sext i32 %24 to i64
  %26 = mul i64 8, %25
  %27 = call noalias ptr @malloc(i64 noundef %26) #7
  br label %29

28:                                               ; preds = %11
  br label %29

29:                                               ; preds = %28, %21
  %30 = phi ptr [ %27, %21 ], [ null, %28 ]
  %31 = load ptr, ptr %3, align 8
  %32 = getelementptr inbounds %struct.Vec_Ptr_t_, ptr %31, i32 0, i32 2
  store ptr %30, ptr %32, align 8
  %33 = load ptr, ptr %3, align 8
  ret ptr %33
}

; Function Attrs: nounwind uwtable
define internal i32 @Ivy_LeafLat(i32 noundef %0) #0 {
  %2 = alloca i32, align 4
  store i32 %0, ptr %2, align 4
  %3 = load i32, ptr %2, align 4
  %4 = and i32 %3, 255
  ret i32 %4
}

; Function Attrs: nounwind uwtable
define internal i32 @Ivy_LeafId(i32 noundef %0) #0 {
  %2 = alloca i32, align 4
  store i32 %0, ptr %2, align 4
  %3 = load i32, ptr %2, align 4
  %4 = ashr i32 %3, 8
  ret i32 %4
}

; Function Attrs: nounwind uwtable
define i32 @Ivy_CutTruthPrint(ptr noundef %0, ptr noundef %1, i32 noundef %2) #0 {
  %4 = alloca ptr, align 8
  %5 = alloca ptr, align 8
  %6 = alloca i32, align 4
  %7 = alloca ptr, align 8
  %8 = alloca ptr, align 8
  %9 = alloca ptr, align 8
  %10 = alloca i32, align 4
  %11 = alloca i32, align 4
  %12 = alloca i32, align 4
  %13 = alloca i32, align 4
  %14 = alloca i32, align 4
  store ptr %0, ptr %4, align 8
  store ptr %1, ptr %5, align 8
  store i32 %2, ptr %6, align 4
  store i32 0, ptr %10, align 4
  store i32 0, ptr %11, align 4
  store i32 0, ptr %14, align 4
  %15 = load i32, ptr %14, align 4
  %16 = icmp ne i32 %15, 0
  br i1 %16, label %17, label %19

17:                                               ; preds = %3
  %18 = call i32 (ptr, ...) @printf(ptr noundef @.str.24)
  br label %19

19:                                               ; preds = %17, %3
  store i32 0, ptr %12, align 4
  br label %20

20:                                               ; preds = %56, %19
  %21 = load i32, ptr %12, align 4
  %22 = load ptr, ptr %5, align 8
  %23 = getelementptr inbounds %struct.Ivy_Cut_t_, ptr %22, i32 0, i32 1
  %24 = load i16, ptr %23, align 4
  %25 = sext i16 %24 to i32
  %26 = icmp slt i32 %21, %25
  br i1 %26, label %27, label %59

27:                                               ; preds = %20
  %28 = load i32, ptr %14, align 4
  %29 = icmp ne i32 %28, 0
  br i1 %29, label %30, label %46

30:                                               ; preds = %27
  %31 = load ptr, ptr %5, align 8
  %32 = getelementptr inbounds %struct.Ivy_Cut_t_, ptr %31, i32 0, i32 3
  %33 = load i32, ptr %12, align 4
  %34 = sext i32 %33 to i64
  %35 = getelementptr inbounds [6 x i32], ptr %32, i64 0, i64 %34
  %36 = load i32, ptr %35, align 4
  %37 = call i32 @Ivy_LeafId(i32 noundef %36)
  %38 = load ptr, ptr %5, align 8
  %39 = getelementptr inbounds %struct.Ivy_Cut_t_, ptr %38, i32 0, i32 3
  %40 = load i32, ptr %12, align 4
  %41 = sext i32 %40 to i64
  %42 = getelementptr inbounds [6 x i32], ptr %39, i64 0, i64 %41
  %43 = load i32, ptr %42, align 4
  %44 = call i32 @Ivy_LeafLat(i32 noundef %43)
  %45 = call i32 (ptr, ...) @printf(ptr noundef @.str.25, i32 noundef %37, i32 noundef %44)
  br label %46

46:                                               ; preds = %30, %27
  %47 = load ptr, ptr %5, align 8
  %48 = getelementptr inbounds %struct.Ivy_Cut_t_, ptr %47, i32 0, i32 3
  %49 = load i32, ptr %12, align 4
  %50 = sext i32 %49 to i64
  %51 = getelementptr inbounds [6 x i32], ptr %48, i64 0, i64 %50
  %52 = load i32, ptr %51, align 4
  %53 = call i32 @Ivy_LeafLat(i32 noundef %52)
  %54 = load i32, ptr %10, align 4
  %55 = add nsw i32 %54, %53
  store i32 %55, ptr %10, align 4
  br label %56

56:                                               ; preds = %46
  %57 = load i32, ptr %12, align 4
  %58 = add nsw i32 %57, 1
  store i32 %58, ptr %12, align 4
  br label %20, !llvm.loop !30

59:                                               ; preds = %20
  %60 = load i32, ptr %14, align 4
  %61 = icmp ne i32 %60, 0
  br i1 %61, label %62, label %64

62:                                               ; preds = %59
  %63 = call i32 (ptr, ...) @printf(ptr noundef @.str.26)
  br label %64

64:                                               ; preds = %62, %59
  %65 = load i32, ptr %14, align 4
  %66 = icmp ne i32 %65, 0
  br i1 %66, label %67, label %70

67:                                               ; preds = %64
  %68 = load i32, ptr %10, align 4
  %69 = call i32 (ptr, ...) @printf(ptr noundef @.str.27, i32 noundef %68)
  br label %70

70:                                               ; preds = %67, %64
  %71 = call ptr @Vec_PtrAlloc(i32 noundef 100)
  store ptr %71, ptr %7, align 8
  store i32 0, ptr %12, align 4
  br label %72

72:                                               ; preds = %116, %70
  %73 = load i32, ptr %12, align 4
  %74 = load ptr, ptr %5, align 8
  %75 = getelementptr inbounds %struct.Ivy_Cut_t_, ptr %74, i32 0, i32 1
  %76 = load i16, ptr %75, align 4
  %77 = sext i16 %76 to i32
  %78 = icmp slt i32 %73, %77
  br i1 %78, label %79, label %119

79:                                               ; preds = %72
  %80 = load ptr, ptr %4, align 8
  %81 = load ptr, ptr %5, align 8
  %82 = getelementptr inbounds %struct.Ivy_Cut_t_, ptr %81, i32 0, i32 3
  %83 = load i32, ptr %12, align 4
  %84 = sext i32 %83 to i64
  %85 = getelementptr inbounds [6 x i32], ptr %82, i64 0, i64 %84
  %86 = load i32, ptr %85, align 4
  %87 = call i32 @Ivy_LeafId(i32 noundef %86)
  %88 = call ptr @Ivy_ManObj(ptr noundef %80, i32 noundef %87)
  store ptr %88, ptr %8, align 8
  store i32 0, ptr %13, align 4
  %89 = load ptr, ptr %4, align 8
  %90 = load ptr, ptr %8, align 8
  %91 = load ptr, ptr %7, align 8
  call void @Ivy_ObjCollectFanouts(ptr noundef %89, ptr noundef %90, ptr noundef %91)
  br label %92

92:                                               ; preds = %112, %79
  %93 = load i32, ptr %13, align 4
  %94 = load ptr, ptr %7, align 8
  %95 = call i32 @Vec_PtrSize(ptr noundef %94)
  %96 = icmp slt i32 %93, %95
  br i1 %96, label %97, label %102

97:                                               ; preds = %92
  %98 = load ptr, ptr %7, align 8
  %99 = load i32, ptr %13, align 4
  %100 = call ptr @Vec_PtrEntry(ptr noundef %98, i32 noundef %99)
  store ptr %100, ptr %9, align 8
  %101 = icmp ne ptr %100, null
  br label %102

102:                                              ; preds = %97, %92
  %103 = phi i1 [ false, %92 ], [ %101, %97 ]
  br i1 %103, label %104, label %115

104:                                              ; preds = %102
  %105 = load ptr, ptr %9, align 8
  %106 = call i32 @Ivy_ObjIsLatch(ptr noundef %105)
  %107 = icmp ne i32 %106, 0
  br i1 %107, label %108, label %111

108:                                              ; preds = %104
  %109 = load i32, ptr %11, align 4
  %110 = add nsw i32 %109, 1
  store i32 %110, ptr %11, align 4
  br label %115

111:                                              ; preds = %104
  br label %112

112:                                              ; preds = %111
  %113 = load i32, ptr %13, align 4
  %114 = add nsw i32 %113, 1
  store i32 %114, ptr %13, align 4
  br label %92, !llvm.loop !31

115:                                              ; preds = %108, %102
  br label %116

116:                                              ; preds = %115
  %117 = load i32, ptr %12, align 4
  %118 = add nsw i32 %117, 1
  store i32 %118, ptr %12, align 4
  br label %72, !llvm.loop !32

119:                                              ; preds = %72
  %120 = load ptr, ptr %7, align 8
  %121 = call i32 @Vec_PtrSize(ptr noundef %120)
  %122 = load i32, ptr %14, align 4
  %123 = icmp ne i32 %122, 0
  br i1 %123, label %124, label %138

124:                                              ; preds = %119
  %125 = load i32, ptr %11, align 4
  %126 = call i32 (ptr, ...) @printf(ptr noundef @.str.28, i32 noundef %125)
  %127 = load i32, ptr %10, align 4
  %128 = load i32, ptr %11, align 4
  %129 = icmp sgt i32 %127, %128
  br i1 %129, label %130, label %136

130:                                              ; preds = %124
  %131 = load i32, ptr %10, align 4
  %132 = load i32, ptr %11, align 4
  %133 = sub nsw i32 %131, %132
  %134 = mul nsw i32 2, %133
  %135 = call i32 (ptr, ...) @printf(ptr noundef @.str.29, i32 noundef %134)
  br label %136

136:                                              ; preds = %130, %124
  %137 = call i32 (ptr, ...) @printf(ptr noundef @.str.12)
  br label %138

138:                                              ; preds = %136, %119
  %139 = load i32, ptr %10, align 4
  %140 = load i32, ptr %11, align 4
  %141 = icmp sgt i32 %139, %140
  br i1 %141, label %142, label %147

142:                                              ; preds = %138
  %143 = load i32, ptr %10, align 4
  %144 = load i32, ptr %11, align 4
  %145 = sub nsw i32 %143, %144
  %146 = mul nsw i32 2, %145
  br label %148

147:                                              ; preds = %138
  br label %148

148:                                              ; preds = %147, %142
  %149 = phi i32 [ %146, %142 ], [ 0, %147 ]
  ret i32 %149
}