; Function Attrs: nounwind uwtable
define range(i32 -2147483648, 2147483647) i32 @Ivy_CutTruthPrint(ptr noundef %0, ptr noundef readonly captures(none) %1, i32 noundef %2) local_unnamed_addr #1 {
  %4 = getelementptr inbounds nuw i8, ptr %1, i64 4
  %5 = load i16, ptr %4, align 4
  %6 = icmp sgt i16 %5, 0
  br i1 %6, label %.lr.ph, label %._crit_edge

.lr.ph:                                           ; preds = %3
  %wide.trip.count = zext nneg i16 %5 to i64
  %7 = getelementptr inbounds nuw i8, ptr %1, i64 8
  br label %8

8:                                                ; preds = %.lr.ph, %8
  %indvars.iv = phi i64 [ 0, %.lr.ph ], [ %indvars.iv.next, %8 ]
  %.053 = phi i32 [ 0, %.lr.ph ], [ %12, %8 ]
  %9 = getelementptr inbounds nuw [6 x i32], ptr %7, i64 0, i64 %indvars.iv
  %10 = load i32, ptr %9, align 4
  %11 = and i32 %10, 255
  %12 = add nuw nsw i32 %11, %.053
  %indvars.iv.next = add nuw nsw i64 %indvars.iv, 1
  %exitcond.not = icmp eq i64 %indvars.iv.next, %wide.trip.count
  br i1 %exitcond.not, label %._crit_edge, label %8, !llvm.loop !29

._crit_edge:                                      ; preds = %8, %3
  %.0.lcssa = phi i32 [ 0, %3 ], [ %12, %8 ]
  %13 = tail call noalias dereferenceable_or_null(16) ptr @malloc(i64 noundef 16) #18
  %14 = getelementptr inbounds nuw i8, ptr %13, i64 4
  store i32 0, ptr %14, align 4
  store i32 100, ptr %13, align 8
  %15 = tail call noalias dereferenceable_or_null(800) ptr @malloc(i64 noundef 800) #18
  %16 = getelementptr inbounds nuw i8, ptr %13, i64 8
  store ptr %15, ptr %16, align 8
  br i1 %6, label %.lr.ph61, label %._crit_edge62

.lr.ph61:                                         ; preds = %._crit_edge
  %17 = getelementptr inbounds nuw i8, ptr %1, i64 8
  %18 = getelementptr i8, ptr %0, i64 24
  br label %19

19:                                               ; preds = %.lr.ph61, %.critedge
  %indvars.iv70 = phi i64 [ 0, %.lr.ph61 ], [ %indvars.iv.next71, %.critedge ]
  %.04358 = phi i32 [ 0, %.lr.ph61 ], [ %.144, %.critedge ]
  %20 = getelementptr inbounds nuw [6 x i32], ptr %17, i64 0, i64 %indvars.iv70
  %21 = load i32, ptr %20, align 4
  %22 = ashr i32 %21, 8
  %.val49 = load ptr, ptr %18, align 8
  %23 = getelementptr i8, ptr %.val49, i64 8
  %.val49.val = load ptr, ptr %23, align 8
  %24 = sext i32 %22 to i64
  %25 = getelementptr inbounds ptr, ptr %.val49.val, i64 %24
  %26 = load ptr, ptr %25, align 8
  tail call void @Ivy_ObjCollectFanouts(ptr noundef %0, ptr noundef %26, ptr noundef nonnull %13) #19
  %.val47 = load i32, ptr %14, align 4
  %27 = icmp sgt i32 %.val47, 0
  br i1 %27, label %.lr.ph56, label %.critedge

.lr.ph56:                                         ; preds = %19
  %.val48 = load ptr, ptr %16, align 8
  %wide.trip.count68 = zext nneg i32 %.val47 to i64
  br label %29

28:                                               ; preds = %32
  %indvars.iv.next66 = add nuw nsw i64 %indvars.iv65, 1
  %exitcond69.not = icmp eq i64 %indvars.iv.next66, %wide.trip.count68
  br i1 %exitcond69.not, label %.critedge, label %29, !llvm.loop !30

29:                                               ; preds = %.lr.ph56, %28
  %indvars.iv65 = phi i64 [ 0, %.lr.ph56 ], [ %indvars.iv.next66, %28 ]
  %30 = getelementptr inbounds nuw ptr, ptr %.val48, i64 %indvars.iv65
  %31 = load ptr, ptr %30, align 8
  %.not = icmp eq ptr %31, null
  br i1 %.not, label %.critedge, label %32

32:                                               ; preds = %29
  %33 = getelementptr i8, ptr %31, i64 8
  %.val50 = load i32, ptr %33, align 8
  %34 = and i32 %.val50, 15
  %.not51 = icmp eq i32 %34, 4
  br i1 %.not51, label %35, label %28

35:                                               ; preds = %32
  %36 = add nsw i32 %.04358, 1
  br label %.critedge

.critedge:                                        ; preds = %28, %29, %19, %35
  %.144 = phi i32 [ %36, %35 ], [ %.04358, %19 ], [ %.04358, %29 ], [ %.04358, %28 ]
  %indvars.iv.next71 = add nuw nsw i64 %indvars.iv70, 1
  %37 = load i16, ptr %4, align 4
  %38 = sext i16 %37 to i64
  %39 = icmp slt i64 %indvars.iv.next71, %38
  br i1 %39, label %19, label %._crit_edge62, !llvm.loop !31

._crit_edge62:                                    ; preds = %.critedge, %._crit_edge
  %.043.lcssa = phi i32 [ 0, %._crit_edge ], [ %.144, %.critedge ]
  %40 = icmp sgt i32 %.0.lcssa, %.043.lcssa
  %41 = sub nsw i32 %.0.lcssa, %.043.lcssa
  %42 = shl nsw i32 %41, 1
  %43 = select i1 %40, i32 %42, i32 0
  ret i32 %43
}